target datalayout = "e-m:e-p270:32:32-p271:32:32-p272:64:64-i64:64-i128:128-f80:128-n8:16:32:64-S128"
target triple = "x86_64-pc-linux-gnu"

%struct._zend_llist = type { ptr, ptr, i64, i64, ptr, i8, ptr }
%struct._zend_llist_element = type { ptr, ptr, [1 x i8] }

@zend_observer_error_callbacks = internal global %struct._zend_llist zeroinitializer, align 8

; Function Attrs: nounwind uwtable
define dso_local void @_zend_observer_error_notify(i32 noundef %0, ptr noundef %1, i32 noundef %2, ptr noundef %3) #0 {
  %5 = alloca i32, align 4
  %6 = alloca ptr, align 8
  %7 = alloca i32, align 4
  %8 = alloca ptr, align 8
  %9 = alloca ptr, align 8
  %10 = alloca ptr, align 8
  store i32 %0, ptr %5, align 4, !tbaa !8
  store ptr %1, ptr %6, align 8, !tbaa !94
  store i32 %2, ptr %7, align 4, !tbaa !8
  store ptr %3, ptr %8, align 8, !tbaa !94
  call void @llvm.lifetime.start.p0(i64 8, ptr %9) #8
  %11 = load ptr, ptr @zend_observer_error_callbacks, align 8, !tbaa !83
  store ptr %11, ptr %9, align 8, !tbaa !84
  br label %12

12:                                               ; preds = %26, %4
  %13 = load ptr, ptr %9, align 8, !tbaa !84
  %14 = icmp ne ptr %13, null
  br i1 %14, label %16, label %15

15:                                               ; preds = %12
  call void @llvm.lifetime.end.p0(i64 8, ptr %9) #8
  br label %30

16:                                               ; preds = %12
  call void @llvm.lifetime.start.p0(i64 8, ptr %10) #8
  %17 = load ptr, ptr %9, align 8, !tbaa !84
  %18 = getelementptr inbounds nuw %struct._zend_llist_element, ptr %17, i32 0, i32 2
  %19 = getelementptr inbounds [1 x i8], ptr %18, i64 0, i64 0
  %20 = load ptr, ptr %19, align 8, !tbaa !4
  store ptr %20, ptr %10, align 8, !tbaa !4
  %21 = load ptr, ptr %10, align 8, !tbaa !4
  %22 = load i32, ptr %5, align 4, !tbaa !8
  %23 = load ptr, ptr %6, align 8, !tbaa !94
  %24 = load i32, ptr %7, align 4, !tbaa !8
  %25 = load ptr, ptr %8, align 8, !tbaa !94
  call void %21(i32 noundef %22, ptr noundef %23, i32 noundef %24, ptr noundef %25)
  call void @llvm.lifetime.end.p0(i64 8, ptr %10) #8
  br label %26

26:                                               ; preds = %16
  %27 = load ptr, ptr %9, align 8, !tbaa !84
  %28 = getelementptr inbounds nuw %struct._zend_llist_element, ptr %27, i32 0, i32 0
  %29 = load ptr, ptr %28, align 8, !tbaa !88
  store ptr %29, ptr %9, align 8, !tbaa !84
  br label %12

30:                                               ; preds = %15
  ret void
}