; Function Attrs: nounwind uwtable
define dso_local void @_zend_observer_error_notify(i32 noundef %0, ptr noundef %1, i32 noundef %2, ptr noundef %3) local_unnamed_addr #0 {
  %.07 = load ptr, ptr @zend_observer_error_callbacks, align 8, !tbaa !72
  %.not8 = icmp eq ptr %.07, null
  br i1 %.not8, label %._crit_edge, label %.lr.ph

._crit_edge:                                      ; preds = %.lr.ph, %4
  ret void

.lr.ph:                                           ; preds = %4, %.lr.ph
  %.09 = phi ptr [ %.0, %.lr.ph ], [ %.07, %4 ]
  %5 = getelementptr inbounds nuw i8, ptr %.09, i64 16
  %6 = load ptr, ptr %5, align 8, !tbaa !4
  tail call void %6(i32 noundef %0, ptr noundef %1, i32 noundef %2, ptr noundef %3) #8
  %.0 = load ptr, ptr %.09, align 8, !tbaa !72
  %.not = icmp eq ptr %.0, null
  br i1 %.not, label %._crit_edge, label %.lr.ph
}